target datalayout = "e-m:e-p270:32:32-p271:32:32-p272:64:64-i64:64-i128:128-f80:128-n8:16:32:64-S128"
target triple = "x86_64-pc-linux-gnu"

%struct._zend_executor_globals = type { %struct._zval_struct, %struct._zval_struct, [32 x ptr], ptr, ptr, %struct._zend_array, %struct._zend_array, ptr, i32, i32, ptr, ptr, ptr, ptr, ptr, ptr, i64, ptr, ptr, i32, i32, i64, i32, i32, i32, i8, i8, %struct.zend_atomic_bool_s, %struct.zend_atomic_bool_s, ptr, i64, ptr, ptr, %struct._zend_array, %struct._zend_array, i32, i8, %struct._zval_struct, %struct._zval_struct, %struct._zend_stack, %struct._zend_stack, %struct._zend_stack, ptr, i32, i32, i64, ptr, ptr, ptr, %struct._zend_objects_store, ptr, ptr, ptr, [3 x %struct._zend_op], ptr, i8, i8, i64, i32, i32, ptr, [16 x %struct._HashTableIterator], ptr, %union._zend_function, %struct._zend_op, %struct._zend_array, i64, %struct.zend_get_gc_buffer, ptr, ptr, ptr, i64, i8, i32, ptr, ptr, i64, %struct._zend_call_stack, i64, i64, [6 x ptr] }
%struct.zend_atomic_bool_s = type { i8 }
%struct._zval_struct = type { %union._zend_value, %union.anon.2, %union.anon.5 }
%union._zend_value = type { i64 }
%union.anon.2 = type { i32 }
%union.anon.5 = type { i32 }
%struct._zend_stack = type { i32, i32, i32, ptr }
%struct._zend_objects_store = type { ptr, i32, i32, i32 }
%struct._HashTableIterator = type { ptr, i32, i32 }
%union._zend_function = type { %struct._zend_op_array }
%struct._zend_op_array = type { i8, [3 x i8], i32, ptr, ptr, ptr, i32, i32, ptr, ptr, ptr, ptr, i32, i32, i32, i32, ptr, ptr, ptr, ptr, ptr, i32, i32, ptr, ptr, ptr, i32, i32, i32, i32, ptr, ptr, [6 x ptr] }
%struct._zend_op = type { ptr, %union._znode_op, %union._znode_op, %union._znode_op, i32, i32, i8, i8, i8, i8 }
%union._znode_op = type { i32 }
%struct._zend_array = type { %struct._zend_refcounted_h, %union.anon.7, i32, %union.anon.9, i32, i32, i32, i32, i64, ptr }
%struct._zend_refcounted_h = type { i32, %union.anon.6 }
%union.anon.6 = type { i32 }
%union.anon.7 = type { i32 }
%union.anon.9 = type { ptr }
%struct.zend_get_gc_buffer = type { ptr, ptr, ptr }
%struct._zend_call_stack = type { ptr, i64 }
%struct._spl_filesystem_object = type { ptr, ptr, ptr, ptr, ptr, i32, i64, ptr, ptr, %union.anon, %struct._zend_object }
%union.anon = type { %struct.anon }
%struct.anon = type { ptr, ptr, i32, ptr, ptr, ptr, %struct._php_stream_dirent }
%struct._php_stream_dirent = type { [256 x i8], i8 }
%struct._zend_object = type { %struct._zend_refcounted_h, i32, ptr, ptr, ptr, [1 x %struct._zval_struct] }
%struct._zend_string = type { %struct._zend_refcounted_h, i64, i64, [1 x i8] }
%struct._zend_execute_data = type { ptr, ptr, ptr, ptr, %struct._zval_struct, ptr, ptr, ptr, ptr }

@executor_globals = external global %struct._zend_executor_globals, align 8

; Function Attrs: nounwind uwtable
define internal ptr @spl_filesystem_from_obj(ptr noundef %0) #0 {
  %2 = alloca ptr, align 8
  store ptr %0, ptr %2, align 8
  %3 = load ptr, ptr %2, align 8
  %4 = getelementptr inbounds i8, ptr %3, i64 -384
  ret ptr %4
}

; Function Attrs: nounwind uwtable
define hidden void @zim_FilesystemIterator_current(ptr noundef %0, ptr noundef %1) #0 {
  %3 = alloca i32, align 4
  %4 = alloca ptr, align 8
  %5 = alloca ptr, align 8
  %6 = alloca ptr, align 8
  %7 = alloca ptr, align 8
  %8 = alloca ptr, align 8
  %9 = alloca ptr, align 8
  %10 = alloca ptr, align 8
  %11 = alloca ptr, align 8
  %12 = alloca ptr, align 8
  store ptr %0, ptr %6, align 8
  store ptr %1, ptr %7, align 8
  %13 = load ptr, ptr %6, align 8
  %14 = getelementptr inbounds %struct._zend_execute_data, ptr %13, i32 0, i32 4
  %15 = getelementptr inbounds %struct._zval_struct, ptr %14, i32 0, i32 0
  %16 = load ptr, ptr %15, align 8
  %17 = call ptr @spl_filesystem_from_obj(ptr noundef %16)
  store ptr %17, ptr %8, align 8
  %18 = load ptr, ptr %6, align 8
  %19 = getelementptr inbounds %struct._zend_execute_data, ptr %18, i32 0, i32 4
  %20 = getelementptr inbounds %struct._zval_struct, ptr %19, i32 0, i32 2
  %21 = load i32, ptr %20, align 4
  %22 = icmp eq i32 %21, 0
  %23 = xor i1 %22, true
  %24 = xor i1 %23, true
  %25 = zext i1 %24 to i32
  %26 = sext i32 %25 to i64
  %27 = icmp ne i64 %26, 0
  br i1 %27, label %28, label %29

28:                                               ; preds = %2
  br label %30

29:                                               ; preds = %2
  call void @zend_wrong_parameters_none_error()
  br label %30

30:                                               ; preds = %29, %28
  %31 = phi i32 [ 0, %28 ], [ -1, %29 ]
  %32 = icmp eq i32 %31, -1
  br i1 %32, label %33, label %38

33:                                               ; preds = %30
  br label %34

34:                                               ; preds = %33
  %35 = load ptr, ptr getelementptr inbounds (%struct._zend_executor_globals, ptr @executor_globals, i32 0, i32 50), align 8
  %36 = icmp ne ptr %35, null
  call void @llvm.assume(i1 %36)
  br label %125

37:                                               ; No predecessors!
  br label %38

38:                                               ; preds = %37, %30
  %39 = load ptr, ptr %8, align 8
  %40 = getelementptr inbounds %struct._spl_filesystem_object, ptr %39, i32 0, i32 6
  %41 = load i64, ptr %40, align 8
  %42 = and i64 %41, 240
  %43 = icmp eq i64 %42, 32
  br i1 %43, label %44, label %85

44:                                               ; preds = %38
  %45 = load ptr, ptr %8, align 8
  %46 = call i32 @spl_filesystem_object_get_file_name(ptr noundef %45)
  %47 = icmp eq i32 %46, -1
  br i1 %47, label %48, label %53

48:                                               ; preds = %44
  br label %49

49:                                               ; preds = %48
  %50 = load ptr, ptr getelementptr inbounds (%struct._zend_executor_globals, ptr @executor_globals, i32 0, i32 50), align 8
  %51 = icmp ne ptr %50, null
  call void @llvm.assume(i1 %51)
  br label %125

52:                                               ; No predecessors!
  br label %53

53:                                               ; preds = %52, %44
  br label %54

54:                                               ; preds = %53
  br label %55

55:                                               ; preds = %54
  %56 = load ptr, ptr %7, align 8
  store ptr %56, ptr %9, align 8
  %57 = load ptr, ptr %8, align 8
  %58 = getelementptr inbounds %struct._spl_filesystem_object, ptr %57, i32 0, i32 4
  %59 = load ptr, ptr %58, align 8
  store ptr %59, ptr %10, align 8
  %60 = load ptr, ptr %10, align 8
  %61 = load ptr, ptr %9, align 8
  %62 = getelementptr inbounds %struct._zval_struct, ptr %61, i32 0, i32 0
  store ptr %60, ptr %62, align 8
  %63 = load ptr, ptr %10, align 8
  %64 = getelementptr inbounds %struct._zend_string, ptr %63, i32 0, i32 0
  %65 = getelementptr inbounds %struct._zend_refcounted_h, ptr %64, i32 0, i32 1
  %66 = load i32, ptr %65, align 4
  store i32 %66, ptr %3, align 4
  %67 = load i32, ptr %3, align 4
  %68 = and i32 %67, 1008
  %69 = and i32 %68, 64
  %70 = icmp ne i32 %69, 0
  br i1 %70, label %71, label %74

71:                                               ; preds = %55
  %72 = load ptr, ptr %9, align 8
  %73 = getelementptr inbounds %struct._zval_struct, ptr %72, i32 0, i32 1
  store i32 6, ptr %73, align 8
  br label %82

74:                                               ; preds = %55
  %75 = load ptr, ptr %10, align 8
  %76 = getelementptr inbounds %struct._zend_string, ptr %75, i32 0, i32 0
  store ptr %76, ptr %4, align 8
  %77 = load ptr, ptr %4, align 8
  %78 = load i32, ptr %77, align 4
  %79 = add i32 %78, 1
  store i32 %79, ptr %77, align 4
  %80 = load ptr, ptr %9, align 8
  %81 = getelementptr inbounds %struct._zval_struct, ptr %80, i32 0, i32 1
  store i32 262, ptr %81, align 8
  br label %82

82:                                               ; preds = %74, %71
  br label %83

83:                                               ; preds = %82
  br label %125

84:                                               ; No predecessors!
  br label %125

85:                                               ; preds = %38
  %86 = load ptr, ptr %8, align 8
  %87 = getelementptr inbounds %struct._spl_filesystem_object, ptr %86, i32 0, i32 6
  %88 = load i64, ptr %87, align 8
  %89 = and i64 %88, 240
  %90 = icmp eq i64 %89, 0
  br i1 %90, label %91, label %104

91:                                               ; preds = %85
  %92 = load ptr, ptr %8, align 8
  %93 = call i32 @spl_filesystem_object_get_file_name(ptr noundef %92)
  %94 = icmp eq i32 %93, -1
  br i1 %94, label %95, label %100

95:                                               ; preds = %91
  br label %96

96:                                               ; preds = %95
  %97 = load ptr, ptr getelementptr inbounds (%struct._zend_executor_globals, ptr @executor_globals, i32 0, i32 50), align 8
  %98 = icmp ne ptr %97, null
  call void @llvm.assume(i1 %98)
  br label %125

99:                                               ; No predecessors!
  br label %100

100:                                              ; preds = %99, %91
  %101 = load ptr, ptr %8, align 8
  %102 = load ptr, ptr %7, align 8
  %103 = call ptr @spl_filesystem_object_create_type(i32 noundef 0, ptr noundef %101, i32 noundef 0, ptr noundef null, ptr noundef %102)
  br label %124

104:                                              ; preds = %85
  br label %105

105:                                              ; preds = %104
  br label %106

106:                                              ; preds = %105
  %107 = load ptr, ptr %7, align 8
  store ptr %107, ptr %11, align 8
  %108 = load ptr, ptr %6, align 8
  %109 = getelementptr inbounds %struct._zend_execute_data, ptr %108, i32 0, i32 4
  %110 = getelementptr inbounds %struct._zval_struct, ptr %109, i32 0, i32 0
  %111 = load ptr, ptr %110, align 8
  store ptr %111, ptr %12, align 8
  %112 = load ptr, ptr %12, align 8
  %113 = getelementptr inbounds %struct._zend_object, ptr %112, i32 0, i32 0
  store ptr %113, ptr %5, align 8
  %114 = load ptr, ptr %5, align 8
  %115 = load i32, ptr %114, align 4
  %116 = add i32 %115, 1
  store i32 %116, ptr %114, align 4
  %117 = load ptr, ptr %12, align 8
  %118 = load ptr, ptr %11, align 8
  %119 = getelementptr inbounds %struct._zval_struct, ptr %118, i32 0, i32 0
  store ptr %117, ptr %119, align 8
  %120 = load ptr, ptr %11, align 8
  %121 = getelementptr inbounds %struct._zval_struct, ptr %120, i32 0, i32 1
  store i32 776, ptr %121, align 8
  br label %122

122:                                              ; preds = %106
  br label %125

123:                                              ; No predecessors!
  br label %124

124:                                              ; preds = %123, %100
  br label %125

125:                                              ; preds = %124, %122, %96, %84, %83, %49, %34
  ret void
}