; Function Attrs: nounwind uwtable
define hidden void @zim_FilesystemIterator_current(ptr nocapture noundef readonly %0, ptr noundef %1) #0 {
  %3 = getelementptr inbounds i8, ptr %0, i64 32
  %4 = load ptr, ptr %3, align 8
  %5 = getelementptr inbounds i8, ptr %4, i64 -384
  %6 = getelementptr inbounds i8, ptr %0, i64 44
  %7 = load i32, ptr %6, align 4
  %.not = icmp eq i32 %7, 0
  br i1 %.not, label %.critedge, label %8

8:                                                ; preds = %2
  tail call void @zend_wrong_parameters_none_error() #18
  %9 = load ptr, ptr getelementptr inbounds (%struct._zend_executor_globals, ptr @executor_globals, i64 0, i32 50), align 8
  %10 = icmp ne ptr %9, null
  tail call void @llvm.assume(i1 %10)
  br label %43

.critedge:                                        ; preds = %2
  %11 = getelementptr inbounds i8, ptr %4, i64 -336
  %12 = load i64, ptr %11, align 8
  %13 = trunc i64 %12 to i8
  %trunc = and i8 %13, -16
  switch i8 %trunc, label %39 [
    i8 32, label %14
    i8 0, label %32
  ]

14:                                               ; preds = %.critedge
  %15 = tail call fastcc i32 @spl_filesystem_object_get_file_name(ptr noundef nonnull %5), !range !4
  %16 = icmp eq i32 %15, -1
  br i1 %16, label %17, label %20

17:                                               ; preds = %14
  %18 = load ptr, ptr getelementptr inbounds (%struct._zend_executor_globals, ptr @executor_globals, i64 0, i32 50), align 8
  %19 = icmp ne ptr %18, null
  tail call void @llvm.assume(i1 %19)
  br label %43

20:                                               ; preds = %14
  %21 = getelementptr inbounds i8, ptr %4, i64 -352
  %22 = load ptr, ptr %21, align 8
  store ptr %22, ptr %1, align 8
  %23 = getelementptr inbounds i8, ptr %22, i64 4
  %24 = load i32, ptr %23, align 4
  %25 = and i32 %24, 64
  %.not24 = icmp eq i32 %25, 0
  br i1 %.not24, label %28, label %26

26:                                               ; preds = %20
  %27 = getelementptr inbounds i8, ptr %1, i64 8
  store i32 6, ptr %27, align 8
  br label %43

28:                                               ; preds = %20
  %29 = load i32, ptr %22, align 4
  %30 = add i32 %29, 1
  store i32 %30, ptr %22, align 4
  %31 = getelementptr inbounds i8, ptr %1, i64 8
  store i32 262, ptr %31, align 8
  br label %43

32:                                               ; preds = %.critedge
  %33 = tail call fastcc i32 @spl_filesystem_object_get_file_name(ptr noundef nonnull %5), !range !4
  %34 = icmp eq i32 %33, -1
  br i1 %34, label %35, label %38

35:                                               ; preds = %32
  %36 = load ptr, ptr getelementptr inbounds (%struct._zend_executor_globals, ptr @executor_globals, i64 0, i32 50), align 8
  %37 = icmp ne ptr %36, null
  tail call void @llvm.assume(i1 %37)
  br label %43

38:                                               ; preds = %32
  tail call fastcc void @spl_filesystem_object_create_type(i32 noundef 0, ptr noundef nonnull %5, i32 noundef 0, ptr noundef null, ptr noundef %1)
  br label %43

39:                                               ; preds = %.critedge
  %40 = load i32, ptr %4, align 4
  %41 = add i32 %40, 1
  store i32 %41, ptr %4, align 4
  store ptr %4, ptr %1, align 8
  %42 = getelementptr inbounds i8, ptr %1, i64 8
  store i32 776, ptr %42, align 8
  br label %43

43:                                               ; preds = %28, %26, %38, %39, %35, %17, %8
  ret void
}